target datalayout = "e-m:e-p270:32:32-p271:32:32-p272:64:64-i64:64-i128:128-f80:128-n8:16:32:64-S128"
target triple = "x86_64-pc-linux-gnu"

%struct.X86Features = type { [2 x i64], ptr }
%union.anon = type { %struct.anon.0 }
%struct.anon.0 = type { %struct.X86Features, i32, i32 }
%struct.AlignData = type { i32, i32 }
%struct.PlatformTarget = type { ptr, i32, ptr, ptr, i32, i32, i32, i32, i32, i32, i32, [7 x %struct.AlignData], [7 x %struct.AlignData], [7 x %struct.AlignData], i32, i16, %union.anon, i8, i8, i8, i8, i8, i8, i8, i8, i8, i8, %struct.AlignData, i32, i32, i32, i32, i32, i32, i32, i32, i32, i32, i32, i32, i32, i32, i32, i32, ptr }

@.str.16 = private unnamed_addr constant [36 x i8] c"FATAL ERROR %s -> in %s @ in %s:%d \00", align 1
@.str.17 = private unnamed_addr constant [22 x i8] c"Should be unreachable\00", align 1
@.str.18 = private unnamed_addr constant [107 x i8] c"generated/home/dtcxzyw/WorkSpace/Projects/compilers/llvm-opt-benchmark/bench/c3c/c3c/src/compiler/target.c\00", align 1
@llvm_target_machine_create.llvm_initialized = internal global i8 0, align 1
@.str.19 = private unnamed_addr constant [44 x i8] c"Could not create target: %s for triple '%s'\00", align 1
@__func__.llvm_target_machine_create = private unnamed_addr constant [27 x i8] c"llvm_target_machine_create\00", align 1
@debug_log = external global i8, align 1
@.str.20 = private unnamed_addr constant [10 x i8] c"-- INFO: \00", align 1
@.str.21 = private unnamed_addr constant [8 x i8] c"CPU: %s\00", align 1
@.str.22 = private unnamed_addr constant [2 x i8] c"\0A\00", align 1
@.str.23 = private unnamed_addr constant [13 x i8] c"Features: %s\00", align 1
@.str.24 = private unnamed_addr constant [1 x i8] zeroinitializer, align 1
@.str.25 = private unnamed_addr constant [33 x i8] c"Failed to create target machine.\00", align 1

; Function Attrs: nounwind uwtable
define dso_local ptr @llvm_target_machine_create() #0 {
  %1 = alloca ptr, align 8
  %2 = alloca ptr, align 8
  %3 = alloca i32, align 4
  %4 = alloca ptr, align 8
  %5 = load i8, ptr @llvm_target_machine_create.llvm_initialized, align 1
  %6 = trunc i8 %5 to i1
  br i1 %6, label %28, label %7

7:                                                ; preds = %0
  store i8 1, ptr @llvm_target_machine_create.llvm_initialized, align 1
  br label %8

8:                                                ; preds = %7
  br label %9

9:                                                ; preds = %8
  br label %10

10:                                               ; preds = %9
  call void @LLVMInitializeARMAsmParser()
  call void @LLVMInitializeARMAsmPrinter()
  call void @LLVMInitializeARMTargetInfo()
  call void @LLVMInitializeARMTarget()
  call void @LLVMInitializeARMDisassembler()
  call void @LLVMInitializeARMTargetMC()
  br label %11

11:                                               ; preds = %10
  br label %12

12:                                               ; preds = %11
  br label %13

13:                                               ; preds = %12
  br label %14

14:                                               ; preds = %13
  call void @LLVMInitializeAArch64AsmParser()
  call void @LLVMInitializeAArch64AsmPrinter()
  call void @LLVMInitializeAArch64TargetInfo()
  call void @LLVMInitializeAArch64Target()
  call void @LLVMInitializeAArch64Disassembler()
  call void @LLVMInitializeAArch64TargetMC()
  br label %15

15:                                               ; preds = %14
  br label %16

16:                                               ; preds = %15
  br label %17

17:                                               ; preds = %16
  br label %18

18:                                               ; preds = %17
  call void @LLVMInitializeRISCVAsmParser()
  call void @LLVMInitializeRISCVAsmPrinter()
  call void @LLVMInitializeRISCVTargetInfo()
  call void @LLVMInitializeRISCVTarget()
  call void @LLVMInitializeRISCVDisassembler()
  call void @LLVMInitializeRISCVTargetMC()
  br label %19

19:                                               ; preds = %18
  br label %20

20:                                               ; preds = %19
  br label %21

21:                                               ; preds = %20
  br label %22

22:                                               ; preds = %21
  call void @LLVMInitializeWebAssemblyAsmParser()
  call void @LLVMInitializeWebAssemblyAsmPrinter()
  call void @LLVMInitializeWebAssemblyTargetInfo()
  call void @LLVMInitializeWebAssemblyTarget()
  call void @LLVMInitializeWebAssemblyDisassembler()
  call void @LLVMInitializeWebAssemblyTargetMC()
  br label %23

23:                                               ; preds = %22
  br label %24

24:                                               ; preds = %23
  br label %25

25:                                               ; preds = %24
  br label %26

26:                                               ; preds = %25
  call void @LLVMInitializeX86AsmParser()
  call void @LLVMInitializeX86AsmPrinter()
  call void @LLVMInitializeX86TargetInfo()
  call void @LLVMInitializeX86Target()
  call void @LLVMInitializeX86Disassembler()
  call void @LLVMInitializeX86TargetMC()
  br label %27

27:                                               ; preds = %26
  br label %28

28:                                               ; preds = %27, %0
  store ptr null, ptr %1, align 8
  store ptr null, ptr %2, align 8
  %29 = load ptr, ptr @platform_target, align 8
  %30 = call i32 @LLVMGetTargetFromTriple(ptr noundef %29, ptr noundef %2, ptr noundef %1)
  %31 = icmp ne i32 %30, 0
  br i1 %31, label %32, label %35

32:                                               ; preds = %28
  %33 = load ptr, ptr %1, align 8
  %34 = load ptr, ptr @platform_target, align 8
  call void (ptr, ...) @error_exit(ptr noundef @.str.19, ptr noundef %33, ptr noundef %34) #7
  unreachable

35:                                               ; preds = %28
  store i32 0, ptr %3, align 4
  %36 = load i32, ptr getelementptr inbounds (%struct.PlatformTarget, ptr @platform_target, i32 0, i32 14), align 4
  switch i32 %36, label %40 [
    i32 1, label %37
    i32 2, label %37
    i32 3, label %37
    i32 4, label %37
    i32 0, label %38
    i32 -1, label %39
  ]

37:                                               ; preds = %35, %35, %35, %35
  store i32 2, ptr %3, align 4
  br label %43

38:                                               ; preds = %35
  store i32 3, ptr %3, align 4
  br label %43

39:                                               ; preds = %35
  br label %40

40:                                               ; preds = %39, %35
  br label %41

41:                                               ; preds = %40
  call void (ptr, ...) @error_exit(ptr noundef @.str.16, ptr noundef @.str.17, ptr noundef @__func__.llvm_target_machine_create, ptr noundef @.str.18, i32 noundef 1741) #7
  unreachable

42:                                               ; No predecessors!
  br label %43

43:                                               ; preds = %42, %38, %37
  br label %44

44:                                               ; preds = %43
  %45 = load i8, ptr @debug_log, align 1
  %46 = trunc i8 %45 to i1
  br i1 %46, label %48, label %47

47:                                               ; preds = %44
  br label %53

48:                                               ; preds = %44
  %49 = call i32 (ptr, ...) @printf(ptr noundef @.str.20)
  %50 = load ptr, ptr getelementptr inbounds (%struct.PlatformTarget, ptr @platform_target, i32 0, i32 2), align 8
  %51 = call i32 (ptr, ...) @printf(ptr noundef @.str.21, ptr noundef %50)
  %52 = call i32 (ptr, ...) @printf(ptr noundef @.str.22)
  br label %53

53:                                               ; preds = %48, %47
  br label %54

54:                                               ; preds = %53
  %55 = load i8, ptr @debug_log, align 1
  %56 = trunc i8 %55 to i1
  br i1 %56, label %58, label %57

57:                                               ; preds = %54
  br label %63

58:                                               ; preds = %54
  %59 = call i32 (ptr, ...) @printf(ptr noundef @.str.20)
  %60 = load ptr, ptr getelementptr inbounds (%struct.PlatformTarget, ptr @platform_target, i32 0, i32 3), align 8
  %61 = call i32 (ptr, ...) @printf(ptr noundef @.str.23, ptr noundef %60)
  %62 = call i32 (ptr, ...) @printf(ptr noundef @.str.22)
  br label %63

63:                                               ; preds = %58, %57
  %64 = load ptr, ptr %2, align 8
  %65 = load ptr, ptr @platform_target, align 8
  %66 = load ptr, ptr getelementptr inbounds (%struct.PlatformTarget, ptr @platform_target, i32 0, i32 2), align 8
  %67 = icmp ne ptr %66, null
  br i1 %67, label %68, label %70

68:                                               ; preds = %63
  %69 = load ptr, ptr getelementptr inbounds (%struct.PlatformTarget, ptr @platform_target, i32 0, i32 2), align 8
  br label %71

70:                                               ; preds = %63
  br label %71

71:                                               ; preds = %70, %68
  %72 = phi ptr [ %69, %68 ], [ @.str.24, %70 ]
  %73 = load ptr, ptr getelementptr inbounds (%struct.PlatformTarget, ptr @platform_target, i32 0, i32 3), align 8
  %74 = icmp ne ptr %73, null
  br i1 %74, label %75, label %77

75:                                               ; preds = %71
  %76 = load ptr, ptr getelementptr inbounds (%struct.PlatformTarget, ptr @platform_target, i32 0, i32 3), align 8
  br label %78

77:                                               ; preds = %71
  br label %78

78:                                               ; preds = %77, %75
  %79 = phi ptr [ %76, %75 ], [ @.str.24, %77 ]
  %80 = load i32, ptr getelementptr inbounds (%struct.PlatformTarget, ptr @platform_target, i32 0, i32 1), align 8
  %81 = load i32, ptr %3, align 4
  %82 = call ptr @LLVMCreateTargetMachine(ptr noundef %64, ptr noundef %65, ptr noundef %72, ptr noundef %79, i32 noundef %80, i32 noundef %81, i32 noundef 0)
  store ptr %82, ptr %4, align 8
  %83 = load ptr, ptr %4, align 8
  call void @LLVMSetTargetMachineUseInitArray(ptr noundef %83, i1 noundef zeroext true)
  %84 = load ptr, ptr %4, align 8
  %85 = icmp ne ptr %84, null
  br i1 %85, label %87, label %86

86:                                               ; preds = %78
  call void (ptr, ...) @error_exit(ptr noundef @.str.25) #7
  unreachable

87:                                               ; preds = %78
  %88 = load ptr, ptr %4, align 8
  call void @LLVMSetTargetMachineAsmVerbosity(ptr noundef %88, i32 noundef 1)
  %89 = load ptr, ptr %4, align 8
  ret ptr %89
}