; Function Attrs: nounwind uwtable
define dso_local noundef ptr @llvm_target_machine_create() local_unnamed_addr #2 {
  %1 = alloca ptr, align 8
  %2 = alloca ptr, align 8
  %.b5 = load i1, ptr @llvm_target_machine_create.llvm_initialized, align 1
  br i1 %.b5, label %4, label %3

3:                                                ; preds = %0
  store i1 true, ptr @llvm_target_machine_create.llvm_initialized, align 1
  tail call void @LLVMInitializeARMAsmParser() #17
  tail call void @LLVMInitializeARMAsmPrinter() #17
  tail call void @LLVMInitializeARMTargetInfo() #17
  tail call void @LLVMInitializeARMTarget() #17
  tail call void @LLVMInitializeARMDisassembler() #17
  tail call void @LLVMInitializeARMTargetMC() #17
  tail call void @LLVMInitializeAArch64AsmParser() #17
  tail call void @LLVMInitializeAArch64AsmPrinter() #17
  tail call void @LLVMInitializeAArch64TargetInfo() #17
  tail call void @LLVMInitializeAArch64Target() #17
  tail call void @LLVMInitializeAArch64Disassembler() #17
  tail call void @LLVMInitializeAArch64TargetMC() #17
  tail call void @LLVMInitializeRISCVAsmParser() #17
  tail call void @LLVMInitializeRISCVAsmPrinter() #17
  tail call void @LLVMInitializeRISCVTargetInfo() #17
  tail call void @LLVMInitializeRISCVTarget() #17
  tail call void @LLVMInitializeRISCVDisassembler() #17
  tail call void @LLVMInitializeRISCVTargetMC() #17
  tail call void @LLVMInitializeWebAssemblyAsmParser() #17
  tail call void @LLVMInitializeWebAssemblyAsmPrinter() #17
  tail call void @LLVMInitializeWebAssemblyTargetInfo() #17
  tail call void @LLVMInitializeWebAssemblyTarget() #17
  tail call void @LLVMInitializeWebAssemblyDisassembler() #17
  tail call void @LLVMInitializeWebAssemblyTargetMC() #17
  tail call void @LLVMInitializeX86AsmParser() #17
  tail call void @LLVMInitializeX86AsmPrinter() #17
  tail call void @LLVMInitializeX86TargetInfo() #17
  tail call void @LLVMInitializeX86Target() #17
  tail call void @LLVMInitializeX86Disassembler() #17
  tail call void @LLVMInitializeX86TargetMC() #17
  br label %4

4:                                                ; preds = %3, %0
  store ptr null, ptr %1, align 8
  store ptr null, ptr %2, align 8
  %5 = load ptr, ptr @platform_target, align 8
  %6 = call i32 @LLVMGetTargetFromTriple(ptr noundef %5, ptr noundef nonnull %2, ptr noundef nonnull %1) #17
  %.not = icmp eq i32 %6, 0
  br i1 %.not, label %10, label %7

7:                                                ; preds = %4
  %8 = load ptr, ptr %1, align 8
  %9 = load ptr, ptr @platform_target, align 8
  call void (ptr, ...) @error_exit(ptr noundef nonnull @.str.19, ptr noundef %8, ptr noundef %9) #16
  unreachable

10:                                               ; preds = %4
  %11 = load i32, ptr getelementptr inbounds ({ ptr, i32, ptr, ptr, i32, i32, i32, i32, i32, i32, i32, [7 x %struct.AlignData], [7 x %struct.AlignData], [7 x %struct.AlignData], i32, i8, i8, %union.anon, i8, i8, i8, i8, i8, i8, i8, i8, i8, i8, %struct.AlignData, i32, i32, i32, i32, i32, i32, i32, i32, i32, i32, i32, i32, i32, i32, i32, i32, ptr }, ptr @platform_target, i64 0, i32 14), align 4
  %12 = icmp ult i32 %11, 5
  br i1 %12, label %switch.lookup, label %13

13:                                               ; preds = %10
  call void (ptr, ...) @error_exit(ptr noundef nonnull @.str.16, ptr noundef nonnull @.str.17, ptr noundef nonnull @__func__.llvm_target_machine_create, ptr noundef nonnull @.str.18, i32 noundef 1741) #16
  unreachable

switch.lookup:                                    ; preds = %10
  %14 = zext nneg i32 %11 to i64
  %switch.gep = getelementptr inbounds [5 x i32], ptr @switch.table.llvm_target_machine_create, i64 0, i64 %14
  %switch.load = load i32, ptr %switch.gep, align 4
  %15 = load i8, ptr @debug_log, align 1
  %16 = trunc i8 %15 to i1
  br i1 %16, label %17, label %21

17:                                               ; preds = %switch.lookup
  %18 = call i32 (ptr, ...) @printf(ptr noundef nonnull dereferenceable(1) @.str.20)
  %19 = load ptr, ptr getelementptr inbounds ({ ptr, i32, ptr, ptr, i32, i32, i32, i32, i32, i32, i32, [7 x %struct.AlignData], [7 x %struct.AlignData], [7 x %struct.AlignData], i32, i8, i8, %union.anon, i8, i8, i8, i8, i8, i8, i8, i8, i8, i8, %struct.AlignData, i32, i32, i32, i32, i32, i32, i32, i32, i32, i32, i32, i32, i32, i32, i32, i32, ptr }, ptr @platform_target, i64 0, i32 2), align 8
  %20 = call i32 (ptr, ...) @printf(ptr noundef nonnull dereferenceable(1) @.str.21, ptr noundef %19)
  %putchar = call i32 @putchar(i32 10)
  %.pre = load i8, ptr @debug_log, align 1
  br label %21

21:                                               ; preds = %17, %switch.lookup
  %22 = phi i8 [ %.pre, %17 ], [ %15, %switch.lookup ]
  %23 = trunc i8 %22 to i1
  br i1 %23, label %24, label %28

24:                                               ; preds = %21
  %25 = call i32 (ptr, ...) @printf(ptr noundef nonnull dereferenceable(1) @.str.20)
  %26 = load ptr, ptr getelementptr inbounds ({ ptr, i32, ptr, ptr, i32, i32, i32, i32, i32, i32, i32, [7 x %struct.AlignData], [7 x %struct.AlignData], [7 x %struct.AlignData], i32, i8, i8, %union.anon, i8, i8, i8, i8, i8, i8, i8, i8, i8, i8, %struct.AlignData, i32, i32, i32, i32, i32, i32, i32, i32, i32, i32, i32, i32, i32, i32, i32, i32, ptr }, ptr @platform_target, i64 0, i32 3), align 8
  %27 = call i32 (ptr, ...) @printf(ptr noundef nonnull dereferenceable(1) @.str.23, ptr noundef %26)
  %putchar6 = call i32 @putchar(i32 10)
  br label %28

28:                                               ; preds = %21, %24
  %29 = load ptr, ptr %2, align 8
  %30 = load ptr, ptr @platform_target, align 8
  %31 = load ptr, ptr getelementptr inbounds ({ ptr, i32, ptr, ptr, i32, i32, i32, i32, i32, i32, i32, [7 x %struct.AlignData], [7 x %struct.AlignData], [7 x %struct.AlignData], i32, i8, i8, %union.anon, i8, i8, i8, i8, i8, i8, i8, i8, i8, i8, %struct.AlignData, i32, i32, i32, i32, i32, i32, i32, i32, i32, i32, i32, i32, i32, i32, i32, i32, ptr }, ptr @platform_target, i64 0, i32 2), align 8
  %.not7 = icmp eq ptr %31, null
  %32 = select i1 %.not7, ptr @.str.24, ptr %31
  %33 = load ptr, ptr getelementptr inbounds ({ ptr, i32, ptr, ptr, i32, i32, i32, i32, i32, i32, i32, [7 x %struct.AlignData], [7 x %struct.AlignData], [7 x %struct.AlignData], i32, i8, i8, %union.anon, i8, i8, i8, i8, i8, i8, i8, i8, i8, i8, %struct.AlignData, i32, i32, i32, i32, i32, i32, i32, i32, i32, i32, i32, i32, i32, i32, i32, i32, ptr }, ptr @platform_target, i64 0, i32 3), align 8
  %.not8 = icmp eq ptr %33, null
  %34 = select i1 %.not8, ptr @.str.24, ptr %33
  %35 = load i32, ptr getelementptr inbounds ({ ptr, i32, ptr, ptr, i32, i32, i32, i32, i32, i32, i32, [7 x %struct.AlignData], [7 x %struct.AlignData], [7 x %struct.AlignData], i32, i8, i8, %union.anon, i8, i8, i8, i8, i8, i8, i8, i8, i8, i8, %struct.AlignData, i32, i32, i32, i32, i32, i32, i32, i32, i32, i32, i32, i32, i32, i32, i32, i32, ptr }, ptr @platform_target, i64 0, i32 1), align 8
  %36 = call ptr @LLVMCreateTargetMachine(ptr noundef %29, ptr noundef %30, ptr noundef nonnull %32, ptr noundef nonnull %34, i32 noundef %35, i32 noundef %switch.load, i32 noundef 0) #17
  call void @LLVMSetTargetMachineUseInitArray(ptr noundef %36, i1 noundef zeroext true) #17
  %.not9 = icmp eq ptr %36, null
  br i1 %.not9, label %37, label %38

37:                                               ; preds = %28
  call void (ptr, ...) @error_exit(ptr noundef nonnull @.str.25) #16
  unreachable

38:                                               ; preds = %28
  call void @LLVMSetTargetMachineAsmVerbosity(ptr noundef nonnull %36, i32 noundef 1) #17
  ret ptr %36
}